target datalayout = "e-m:e-p270:32:32-p271:32:32-p272:64:64-i64:64-i128:128-f80:128-n8:16:32:64-S128"
target triple = "x86_64-pc-linux-gnu"

%"class.LIEF::MachO::ChainedBindingInfo" = type { %"class.LIEF::MachO::BindingInfo", i32, i32, i32, i32, %union.anon }
%"class.LIEF::MachO::BindingInfo" = type { %"class.LIEF::Object", ptr, ptr, i32, i64, i8, ptr, i64 }
%"class.LIEF::Object" = type { ptr }
%union.anon = type { ptr }

; Function Attrs: mustprogress uwtable
define noundef i64 @_ZNK4LIEF5MachO18ChainedBindingInfo20sign_extended_addendEv(ptr noundef nonnull align 8 dereferenceable(88) %0) #0 align 2 {
  %2 = alloca i64, align 8
  %3 = alloca ptr, align 8
  store ptr %0, ptr %3, align 8
  %4 = load ptr, ptr %3, align 8
  %5 = getelementptr inbounds %"class.LIEF::MachO::ChainedBindingInfo", ptr %4, i32 0, i32 4
  %6 = load i32, ptr %5, align 4
  switch i32 %6, label %29 [
    i32 2, label %7
    i32 1, label %8
    i32 3, label %12
    i32 4, label %16
    i32 6, label %17
    i32 5, label %24
    i32 0, label %28
  ]

7:                                                ; preds = %1
  store i64 0, ptr %2, align 8
  br label %30

8:                                                ; preds = %1
  %9 = getelementptr inbounds %"class.LIEF::MachO::ChainedBindingInfo", ptr %4, i32 0, i32 5
  %10 = load ptr, ptr %9, align 8
  %11 = call noundef i64 @_ZN4LIEF5MachO7details20sign_extended_addendERKNS1_28dyld_chained_ptr_arm64e_bindE(ptr noundef nonnull align 8 dereferenceable(8) %10)
  store i64 %11, ptr %2, align 8
  br label %30

12:                                               ; preds = %1
  %13 = getelementptr inbounds %"class.LIEF::MachO::ChainedBindingInfo", ptr %4, i32 0, i32 5
  %14 = load ptr, ptr %13, align 8
  %15 = call noundef i64 @_ZN4LIEF5MachO7details20sign_extended_addendERKNS1_30dyld_chained_ptr_arm64e_bind24E(ptr noundef nonnull align 8 dereferenceable(8) %14)
  store i64 %15, ptr %2, align 8
  br label %30

16:                                               ; preds = %1
  store i64 0, ptr %2, align 8
  br label %30

17:                                               ; preds = %1
  %18 = getelementptr inbounds %"class.LIEF::MachO::ChainedBindingInfo", ptr %4, i32 0, i32 5
  %19 = load ptr, ptr %18, align 8
  %20 = load i32, ptr %19, align 4
  %21 = lshr i32 %20, 20
  %22 = and i32 %21, 63
  %23 = zext i32 %22 to i64
  store i64 %23, ptr %2, align 8
  br label %30

24:                                               ; preds = %1
  %25 = getelementptr inbounds %"class.LIEF::MachO::ChainedBindingInfo", ptr %4, i32 0, i32 5
  %26 = load ptr, ptr %25, align 8
  %27 = call noundef i64 @_ZN4LIEF5MachO7details20sign_extended_addendERKNS1_24dyld_chained_ptr_64_bindE(ptr noundef nonnull align 8 dereferenceable(8) %26)
  store i64 %27, ptr %2, align 8
  br label %30

28:                                               ; preds = %1
  store i64 0, ptr %2, align 8
  br label %30

29:                                               ; preds = %1
  store i64 0, ptr %2, align 8
  br label %30

30:                                               ; preds = %29, %28, %24, %17, %16, %12, %8, %7
  %31 = load i64, ptr %2, align 8
  ret i64 %31
}