; Function Attrs: mustprogress uwtable
define noundef i64 @_ZNK4LIEF5MachO18ChainedBindingInfo20sign_extended_addendEv(ptr nocapture noundef nonnull readonly align 8 dereferenceable(88) %0) local_unnamed_addr #0 align 2 {
  %2 = getelementptr inbounds i8, ptr %0, i64 76
  %3 = load i32, ptr %2, align 4
  switch i32 %3, label %23 [
    i32 5, label %19
    i32 1, label %4
    i32 3, label %8
    i32 6, label %12
  ]

4:                                                ; preds = %1
  %5 = getelementptr inbounds i8, ptr %0, i64 80
  %6 = load ptr, ptr %5, align 8
  %7 = tail call noundef i64 @_ZN4LIEF5MachO7details20sign_extended_addendERKNS1_28dyld_chained_ptr_arm64e_bindE(ptr noundef nonnull align 8 dereferenceable(8) %6)
  br label %23

8:                                                ; preds = %1
  %9 = getelementptr inbounds i8, ptr %0, i64 80
  %10 = load ptr, ptr %9, align 8
  %11 = tail call noundef i64 @_ZN4LIEF5MachO7details20sign_extended_addendERKNS1_30dyld_chained_ptr_arm64e_bind24E(ptr noundef nonnull align 8 dereferenceable(8) %10)
  br label %23

12:                                               ; preds = %1
  %13 = getelementptr inbounds i8, ptr %0, i64 80
  %14 = load ptr, ptr %13, align 8
  %15 = load i32, ptr %14, align 4
  %16 = lshr i32 %15, 20
  %17 = and i32 %16, 63
  %18 = zext nneg i32 %17 to i64
  br label %23

19:                                               ; preds = %1
  %20 = getelementptr inbounds i8, ptr %0, i64 80
  %21 = load ptr, ptr %20, align 8
  %22 = tail call noundef i64 @_ZN4LIEF5MachO7details20sign_extended_addendERKNS1_24dyld_chained_ptr_64_bindE(ptr noundef nonnull align 8 dereferenceable(8) %21)
  br label %23

23:                                               ; preds = %1, %19, %12, %8, %4
  %.0 = phi i64 [ %22, %19 ], [ %18, %12 ], [ %11, %8 ], [ %7, %4 ], [ 0, %1 ]
  ret i64 %.0
}